; Function Attrs: nounwind uwtable
define hidden void @zif_proc_close(ptr noundef %0, ptr noundef writeonly captures(none) %1) local_unnamed_addr #0 {
  %3 = getelementptr inbounds nuw i8, ptr %0, i64 44
  %4 = load i32, ptr %3, align 4, !tbaa !39
  %cond = icmp eq i32 %4, 1
  br i1 %cond, label %5, label %.thread, !prof !73

.thread:                                          ; preds = %2
  tail call void @zend_wrong_parameters_count_error(i32 noundef 1, i32 noundef 1) #13
  br label %10

5:                                                ; preds = %2
  %6 = getelementptr inbounds nuw i8, ptr %0, i64 80
  %7 = getelementptr inbounds nuw i8, ptr %0, i64 88
  %8 = load i8, ptr %7, align 8, !tbaa !39
  %9 = icmp eq i8 %8, 9
  br i1 %9, label %.critedge, label %10, !prof !44

10:                                               ; preds = %.thread, %5
  %.053 = phi i32 [ 0, %.thread ], [ 1, %5 ]
  %.03552 = phi i32 [ 1, %.thread ], [ 9, %5 ]
  %.03651 = phi ptr [ null, %.thread ], [ %6, %5 ]
  %.03750 = phi i32 [ 0, %.thread ], [ 14, %5 ]
  tail call void @zend_wrong_parameter_error(i32 noundef %.03552, i32 noundef %.053, ptr noundef null, i32 noundef %.03750, ptr noundef %.03651) #13
  br label %23

.critedge:                                        ; preds = %5
  %11 = load ptr, ptr %6, align 8, !tbaa !39
  %12 = load i32, ptr @le_proc_open, align 4, !tbaa !4
  %13 = tail call ptr @zend_fetch_resource(ptr noundef %11, ptr noundef nonnull @.str, i32 noundef %12) #13
  %14 = icmp eq ptr %13, null
  br i1 %14, label %15, label %18

15:                                               ; preds = %.critedge
  %16 = load ptr, ptr getelementptr inbounds nuw (i8, ptr @executor_globals, i64 960), align 8, !tbaa !45
  %17 = icmp ne ptr %16, null
  tail call void @llvm.assume(i1 %17)
  br label %23

18:                                               ; preds = %.critedge
  store i32 1, ptr getelementptr inbounds nuw (i8, ptr @file_globals, i64 88), align 8, !tbaa !22
  %19 = load ptr, ptr %6, align 8, !tbaa !39
  tail call void @zend_list_close(ptr noundef %19) #13
  store i32 0, ptr getelementptr inbounds nuw (i8, ptr @file_globals, i64 88), align 8, !tbaa !22
  %20 = load i32, ptr @file_globals, align 8, !tbaa !37
  %21 = sext i32 %20 to i64
  store i64 %21, ptr %1, align 8, !tbaa !39
  %22 = getelementptr inbounds nuw i8, ptr %1, i64 8
  store i32 4, ptr %22, align 8, !tbaa !39
  br label %23

23:                                               ; preds = %10, %18, %15
  ret void
}